; Function Attrs: nounwind uwtable
define internal fastcc noundef range(i32 0, 2) i32 @validate_comprehension(ptr noundef nonnull captures(none) %0, ptr noundef readonly %1) unnamed_addr #0 {
  %3 = icmp eq ptr %1, null
  br i1 %3, label %validate_exprs.exit.thread.sink.split, label %4

4:                                                ; preds = %2
  %5 = load i64, ptr %1, align 8, !tbaa !27
  %6 = icmp eq i64 %5, 0
  br i1 %6, label %validate_exprs.exit.thread.sink.split, label %.preheader

.preheader:                                       ; preds = %4
  %.not38 = icmp slt i64 %5, 1
  br i1 %.not38, label %validate_exprs.exit.thread, label %.lr.ph

.lr.ph:                                           ; preds = %.preheader
  %7 = getelementptr inbounds nuw i8, ptr %1, i64 16
  br label %8

8:                                                ; preds = %.lr.ph, %.critedge25
  %.01839 = phi i64 [ 0, %.lr.ph ], [ %29, %.critedge25 ]
  %9 = getelementptr [1 x ptr], ptr %7, i64 0, i64 %.01839
  %10 = load ptr, ptr %9, align 8, !tbaa !122
  %11 = load ptr, ptr %10, align 8, !tbaa !124
  %12 = tail call fastcc i32 @validate_expr(ptr noundef %0, ptr noundef %11, i32 noundef 2)
  %.not21 = icmp eq i32 %12, 0
  br i1 %.not21, label %validate_exprs.exit.thread, label %13

13:                                               ; preds = %8
  %14 = getelementptr inbounds nuw i8, ptr %10, i64 8
  %15 = load ptr, ptr %14, align 8, !tbaa !126
  %16 = tail call fastcc i32 @validate_expr(ptr noundef %0, ptr noundef %15, i32 noundef 1)
  %.not22 = icmp eq i32 %16, 0
  br i1 %.not22, label %validate_exprs.exit.thread, label %17

17:                                               ; preds = %13
  %18 = getelementptr inbounds nuw i8, ptr %10, i64 16
  %19 = load ptr, ptr %18, align 8, !tbaa !127
  %20 = icmp eq ptr %19, null
  %21 = getelementptr inbounds nuw i8, ptr %19, i64 16
  br i1 %20, label %.critedge25, label %.split

.split:                                           ; preds = %17, %.critedge.i
  %.015.i = phi i64 [ %28, %.critedge.i ], [ 0, %17 ]
  %22 = load i64, ptr %19, align 8, !tbaa !27
  %23 = icmp slt i64 %.015.i, %22
  br i1 %23, label %24, label %.critedge25

24:                                               ; preds = %.split
  %25 = getelementptr [1 x ptr], ptr %21, i64 0, i64 %.015.i
  %26 = load ptr, ptr %25, align 8, !tbaa !29
  %.not.i = icmp eq ptr %26, null
  br i1 %.not.i, label %validate_exprs.exit.thread.sink.split, label %.critedge.i

.critedge.i:                                      ; preds = %24
  %27 = tail call fastcc i32 @validate_expr(ptr noundef nonnull %0, ptr noundef nonnull %26, i32 noundef 1)
  %.not19.i = icmp eq i32 %27, 0
  %28 = add nuw nsw i64 %.015.i, 1
  br i1 %.not19.i, label %validate_exprs.exit.thread, label %.split, !llvm.loop !31

.critedge25:                                      ; preds = %.split, %17
  %29 = add nuw nsw i64 %.01839, 1
  %30 = load i64, ptr %1, align 8, !tbaa !27
  %.not.not = icmp slt i64 %29, %30
  br i1 %.not.not, label %8, label %validate_exprs.exit.thread, !llvm.loop !128

validate_exprs.exit.thread.sink.split:            ; preds = %24, %4, %2
  %.str.73.sink = phi ptr [ @.str.71, %2 ], [ @.str.71, %4 ], [ @.str.73, %24 ]
  %31 = load ptr, ptr @PyExc_ValueError, align 8, !tbaa !33
  tail call void @PyErr_SetString(ptr noundef %31, ptr noundef nonnull %.str.73.sink) #5
  br label %validate_exprs.exit.thread

validate_exprs.exit.thread:                       ; preds = %13, %8, %.critedge25, %.critedge.i, %validate_exprs.exit.thread.sink.split, %.preheader
  %.0 = phi i32 [ 1, %.preheader ], [ 0, %validate_exprs.exit.thread.sink.split ], [ 0, %.critedge.i ], [ 1, %.critedge25 ], [ 0, %8 ], [ 0, %13 ]
  ret i32 %.0
}